; ModuleID = 'source-C-CXX/53/1692.cpp'
source_filename = "source-C-CXX/53/1692.cpp"
target datalayout = "e-m:e-p270:32:32-p271:32:32-p272:64:64-i64:64-f80:128-n8:16:32:64-S128"
target triple = "x86_64-pc-linux-gnu"

%"class.std::ios_base::Init" = type { i8 }
%"class.std::basic_ostream" = type { i32 (...)**, %"class.std::basic_ios" }
%"class.std::basic_ios" = type { %"class.std::ios_base", %"class.std::basic_ostream"*, i8, i8, %"class.std::basic_streambuf"*, %"class.std::ctype"*, %"class.std::num_put"*, %"class.std::num_get"* }
%"class.std::ios_base" = type { i32 (...)**, i64, i64, i32, i32, i32, %"struct.std::ios_base::_Callback_list"*, %"struct.std::ios_base::_Words", [8 x %"struct.std::ios_base::_Words"], i32, %"struct.std::ios_base::_Words"*, %"class.std::locale" }
%"struct.std::ios_base::_Callback_list" = type { %"struct.std::ios_base::_Callback_list"*, void (i32, %"class.std::ios_base"*, i32)*, i32, i32 }
%"struct.std::ios_base::_Words" = type { i8*, i64 }
%"class.std::locale" = type { %"class.std::locale::_Impl"* }
%"class.std::locale::_Impl" = type { i32, %"class.std::locale::facet"**, i64, %"class.std::locale::facet"**, i8** }
%"class.std::locale::facet" = type <{ i32 (...)**, i32, [4 x i8] }>
%"class.std::basic_streambuf" = type { i32 (...)**, i8*, i8*, i8*, i8*, i8*, i8*, %"class.std::locale" }
%"class.std::ctype" = type <{ %"class.std::locale::facet.base", [4 x i8], %struct.__locale_struct*, i8, [7 x i8], i32*, i32*, i16*, i8, [256 x i8], [256 x i8], i8, [6 x i8] }>
%"class.std::locale::facet.base" = type <{ i32 (...)**, i32 }>
%struct.__locale_struct = type { [13 x %struct.__locale_data*], i16*, i32*, i32*, [13 x i8*] }
%struct.__locale_data = type opaque
%"class.std::num_put" = type { %"class.std::locale::facet.base", [4 x i8] }
%"class.std::num_get" = type { %"class.std::locale::facet.base", [4 x i8] }
%"class.std::basic_istream" = type { i32 (...)**, i64, %"class.std::basic_ios" }

@_ZStL8__ioinit = internal global %"class.std::ios_base::Init" zeroinitializer, align 1
@__dso_handle = external hidden global i8
@m = dso_local local_unnamed_addr global i32 0, align 4
@_ZSt4cout = external global %"class.std::basic_ostream", align 8
@_ZSt3cin = external global %"class.std::basic_istream", align 8
@llvm.global_ctors = appending global [1 x { i32, void ()*, i8* }] [{ i32, void ()*, i8* } { i32 65535, void ()* @_GLOBAL__sub_I_1692.cpp, i8* null }]

declare void @_ZNSt8ios_base4InitC1Ev(%"class.std::ios_base::Init"* nonnull align 1 dereferenceable(1)) unnamed_addr #0

; Function Attrs: nounwind
declare void @_ZNSt8ios_base4InitD1Ev(%"class.std::ios_base::Init"* nonnull align 1 dereferenceable(1)) unnamed_addr #1

; Function Attrs: nofree nounwind
declare i32 @__cxa_atexit(void (i8*)*, i8*, i8*) local_unnamed_addr #2

; Function Attrs: mustprogress sspstrong uwtable
define dso_local void @_Z8caucluteii(i32 %0, i32 %1) local_unnamed_addr #3 {
  %3 = add nsw i32 %0, -1
  %4 = icmp slt i32 %0, 1
  br i1 %4, label %5, label %7

5:                                                ; preds = %2
  %6 = load i32, i32* @m, align 4, !tbaa !5
  br label %32

7:                                                ; preds = %2
  %8 = add nuw i32 %0, 1
  br label %9

9:                                                ; preds = %7, %27
  %10 = phi i32 [ %30, %27 ], [ 1, %7 ]
  br label %11

11:                                               ; preds = %9, %21
  %12 = phi i32 [ 1, %9 ], [ %25, %21 ]
  %13 = icmp eq i32 %12, 1
  br i1 %13, label %21, label %14

14:                                               ; preds = %11
  %15 = load i32, i32* @m, align 4, !tbaa !5
  %16 = srem i32 %15, %3
  %17 = sdiv i32 %15, %3
  %18 = icmp eq i32 %16, 0
  br i1 %18, label %21, label %19

19:                                               ; preds = %14
  %20 = add nsw i32 %10, 1
  br label %27

21:                                               ; preds = %14, %11
  %22 = phi i32 [ %10, %11 ], [ %17, %14 ]
  %23 = mul nsw i32 %22, %0
  %24 = add nsw i32 %23, %1
  store i32 %24, i32* @m, align 4, !tbaa !5
  %25 = add nuw i32 %12, 1
  %26 = icmp eq i32 %12, %0
  br i1 %26, label %27, label %11, !llvm.loop !9

27:                                               ; preds = %21, %19
  %28 = phi i32 [ %15, %19 ], [ %24, %21 ]
  %29 = phi i32 [ %12, %19 ], [ %8, %21 ]
  %30 = phi i32 [ %20, %19 ], [ %10, %21 ]
  %31 = icmp sgt i32 %29, %0
  br i1 %31, label %32, label %9, !llvm.loop !11

32:                                               ; preds = %27, %5
  %33 = phi i32 [ %6, %5 ], [ %28, %27 ]
  %34 = tail call nonnull align 8 dereferenceable(8) %"class.std::basic_ostream"* @_ZNSolsEi(%"class.std::basic_ostream"* nonnull align 8 dereferenceable(8) @_ZSt4cout, i32 %33)
  ret void
}

; Function Attrs: argmemonly mustprogress nofree nosync nounwind willreturn
declare void @llvm.lifetime.start.p0i8(i64 immarg, i8* nocapture) #4

declare nonnull align 8 dereferenceable(8) %"class.std::basic_ostream"* @_ZNSolsEi(%"class.std::basic_ostream"* nonnull align 8 dereferenceable(8), i32) local_unnamed_addr #0

; Function Attrs: argmemonly mustprogress nofree nosync nounwind willreturn
declare void @llvm.lifetime.end.p0i8(i64 immarg, i8* nocapture) #4

; Function Attrs: mustprogress norecurse sspstrong uwtable
define dso_local i32 @main() local_unnamed_addr #5 {
  %1 = alloca i32, align 4
  %2 = alloca i32, align 4
  %3 = bitcast i32* %1 to i8*
  call void @llvm.lifetime.start.p0i8(i64 4, i8* nonnull %3) #7
  %4 = bitcast i32* %2 to i8*
  call void @llvm.lifetime.start.p0i8(i64 4, i8* nonnull %4) #7
  %5 = call nonnull align 8 dereferenceable(16) %"class.std::basic_istream"* @_ZNSirsERi(%"class.std::basic_istream"* nonnull align 8 dereferenceable(16) @_ZSt3cin, i32* nonnull align 4 dereferenceable(4) %1)
  %6 = call nonnull align 8 dereferenceable(16) %"class.std::basic_istream"* @_ZNSirsERi(%"class.std::basic_istream"* nonnull align 8 dereferenceable(16) %5, i32* nonnull align 4 dereferenceable(4) %2)
  %7 = load i32, i32* %1, align 4, !tbaa !5
  %8 = load i32, i32* %2, align 4, !tbaa !5
  %9 = add nsw i32 %7, -1
  %10 = icmp slt i32 %7, 1
  br i1 %10, label %11, label %13

11:                                               ; preds = %0
  %12 = load i32, i32* @m, align 4, !tbaa !5
  br label %38

13:                                               ; preds = %0
  %14 = add nuw i32 %7, 1
  br label %15

15:                                               ; preds = %33, %13
  %16 = phi i32 [ %36, %33 ], [ 1, %13 ]
  br label %17

17:                                               ; preds = %27, %15
  %18 = phi i32 [ 1, %15 ], [ %31, %27 ]
  %19 = icmp eq i32 %18, 1
  br i1 %19, label %27, label %20

20:                                               ; preds = %17
  %21 = load i32, i32* @m, align 4, !tbaa !5
  %22 = srem i32 %21, %9
  %23 = sdiv i32 %21, %9
  %24 = icmp eq i32 %22, 0
  br i1 %24, label %27, label %25

25:                                               ; preds = %20
  %26 = add nsw i32 %16, 1
  br label %33

27:                                               ; preds = %20, %17
  %28 = phi i32 [ %16, %17 ], [ %23, %20 ]
  %29 = mul nsw i32 %28, %7
  %30 = add nsw i32 %29, %8
  store i32 %30, i32* @m, align 4, !tbaa !5
  %31 = add nuw i32 %18, 1
  %32 = icmp eq i32 %18, %7
  br i1 %32, label %33, label %17, !llvm.loop !9

33:                                               ; preds = %27, %25
  %34 = phi i32 [ %21, %25 ], [ %30, %27 ]
  %35 = phi i32 [ %18, %25 ], [ %14, %27 ]
  %36 = phi i32 [ %26, %25 ], [ %16, %27 ]
  %37 = icmp sgt i32 %35, %7
  br i1 %37, label %38, label %15, !llvm.loop !11

38:                                               ; preds = %33, %11
  %39 = phi i32 [ %12, %11 ], [ %34, %33 ]
  %40 = call nonnull align 8 dereferenceable(8) %"class.std::basic_ostream"* @_ZNSolsEi(%"class.std::basic_ostream"* nonnull align 8 dereferenceable(8) @_ZSt4cout, i32 %39)
  call void @llvm.lifetime.end.p0i8(i64 4, i8* nonnull %4) #7
  call void @llvm.lifetime.end.p0i8(i64 4, i8* nonnull %3) #7
  ret i32 0
}

declare nonnull align 8 dereferenceable(16) %"class.std::basic_istream"* @_ZNSirsERi(%"class.std::basic_istream"* nonnull align 8 dereferenceable(16), i32* nonnull align 4 dereferenceable(4)) local_unnamed_addr #0

; Function Attrs: sspstrong uwtable
define internal void @_GLOBAL__sub_I_1692.cpp() #6 section ".text.startup" {
  tail call void @_ZNSt8ios_base4InitC1Ev(%"class.std::ios_base::Init"* nonnull align 1 dereferenceable(1) @_ZStL8__ioinit)
  %1 = tail call i32 @__cxa_atexit(void (i8*)* bitcast (void (%"class.std::ios_base::Init"*)* @_ZNSt8ios_base4InitD1Ev to void (i8*)*), i8* getelementptr inbounds (%"class.std::ios_base::Init", %"class.std::ios_base::Init"* @_ZStL8__ioinit, i64 0, i32 0), i8* nonnull @__dso_handle) #7
  ret void
}


!llvm.module.flags = !{!0, !1, !2, !3}
!llvm.ident = !{!4}

!0 = !{i32 1, !"wchar_size", i32 4}
!1 = !{i32 7, !"PIC Level", i32 2}
!2 = !{i32 7, !"PIE Level", i32 2}
!3 = !{i32 7, !"uwtable", i32 1}
!4 = !{!"clang version 13.0.0"}
!5 = !{!6, !6, i64 0}
!6 = !{!"int", !7, i64 0}
!7 = !{!"omnipotent char", !8, i64 0}
!8 = !{!"Simple C++ TBAA"}
!9 = distinct !{!9, !10}
!10 = !{!"llvm.loop.mustprogress"}
!11 = distinct !{!11, !10}
